MPASM 5.73                          PROG.ASM   5-15-2017  19:22:12         PAGE  1


LOC  OBJECT CODE     LINE SOURCE TEXT
  VALUE

Warning[205]: Found directive in column 1. (list)
                      00001 list p=16f877a
                      00002 ;;; Configuración
                      00003 ;;;  Oscilador: cristal de cuarzo
                      00004 ;;;  WatchDogTimer: apagado
                      00005 ;;;  CodeProtection: desactivado
                      00006 ;;;  PoWeR up Timer activado
Warning[205]: Found directive in column 1. (__CONFIG)
2007   3FF1           00007 __CONFIG _XT_OSC & _WDT_OFF & _CP_OFF & _PWRTE_ON
Warning[205]: Found directive in column 1. (INCLUDE)
                      00008 INCLUDE <P16F877A.INC>
                      00001         LIST
                      00002 
                      00003 ;==========================================================================
                      00004 ; Build date : Mar 21 2017
                      00005 ;  MPASM PIC16F877A processor include
                      00006 ; 
                      00007 ;  (c) Copyright 1999-2017 Microchip Technology, All rights reserved
                      00008 ;==========================================================================
                      00009 
                      00567         LIST
                      00009 
  00000021            00010 Time0 EQU 0X21 ;valores de tiempo 0-9/centesimas de segundo
  00000022            00011 Time1 EQU 0X22 ;decimas de segundos
  00000023            00012 Time2 EQU 0X23 ;segundos
  00000024            00013 Time3 EQU 0X24 ;decenas de segundo
  00000025            00014 Time4 EQU 0x25 ;centenas de segundo 
  00000026            00015 TimeAux EQU 0x26
                      00016 
  00000027            00017 Disp0 EQU 0X27 ; valores de los displays
  00000028            00018 Disp1 EQU 0x28
  00000029            00019 Disp2 EQU 0x29
  0000002A            00020 Disp3 EQU 0x2A
  00000005            00021 MULT_PORT equ PORTA ;puerto de multiplexado
  00000000            00022 D0 equ 0x00
  00000001            00023 D1 equ 0x01
  00000002            00024 D2 equ 0x02
  00000003            00025 D3 equ 0x03
                      00026 
                      00027 
  00000030            00028 W_TMP EQU 0X30
  00000031            00029 S_TMP EQU 0X31
  00000032            00030 cont_flag equ 0x32 ; es una bandera que ademas cuenta el tiempo de retencion de muestra del intervalo re
                            cibido desde la pc
                      00031 
                      00032 
Warning[205]: Found directive in column 1. (ORG)
                      00033 ORG 00
0000   2???           00034         GOTO INICIO
Warning[205]: Found directive in column 1. (ORG)
                      00035 ORG 04
0004   2???           00036         GOTO INTERRUPT
                      00037         
MPASM 5.73                          PROG.ASM   5-15-2017  19:22:12         PAGE  2


LOC  OBJECT CODE     LINE SOURCE TEXT
  VALUE

Warning[205]: Found directive in column 1. (ORG)
                      00038 ORG 06
Warning[207]: Found label after column 1. (INICIO)
0006                  00039         INICIO ; CONFIGURACOINES
0006   1683           00040                 BSF STATUS,RP0;BANCO1
0007   1303           00041                 BCF STATUS,RP1
0008   3006           00042                 MOVLW 0x06 ; Configure all pins
Message[302]: Register in operand not in bank 0.  Ensure that bank bits are correct.
0009   009F           00043                 MOVWF ADCON1
                      00044                 
Message[302]: Register in operand not in bank 0.  Ensure that bank bits are correct.
000A   0185           00045                 CLRF TRISA ; CONFIGURACION DE PUERTOS
Message[302]: Register in operand not in bank 0.  Ensure that bank bits are correct.
000B   0188           00046                 CLRF TRISD
000C   3001           00047                 MOVLW 0X01
Message[302]: Register in operand not in bank 0.  Ensure that bank bits are correct.
000D   0086           00048                 MOVWF TRISB
000E   3080           00049                 MOVLW 0X80
Message[302]: Register in operand not in bank 0.  Ensure that bank bits are correct.
000F   0087           00050                 MOVWF TRISC
                      00051                 
Message[302]: Register in operand not in bank 0.  Ensure that bank bits are correct.
0010   140C           00052                 BSF PIE1,TMR1IE; HABILITO INTERRUPCION POR TIMER1
                      00053                 
0011   1283           00054                 BCF STATUS,RP0; BANCO 0
                      00055                 
0012   170B           00056                 BSF INTCON,PEIE ; HABILITO LAS INTERRUPCIONES POR PERIFERICOS
                      00057                 
0013   160B           00058                 BSF INTCON,INTE
0014   3000           00059                 MOVLW 0x00; PRESCALER 1:1 , CON SYNC , CLOCK INTERNO, TMR1ON = 0
0015   0090           00060                 MOVWF T1CON;
                      00061                 
                      00062 ;;;;;;;;; CONFIGURO LOS PARAMETROS DE TRANSMICION;;;;;;;;;;;;;;;;;;;;;;;;;;;;;;;
0016   1683           00063                 BSF STATUS,RP0;BANCO1
0017   1303           00064                 BCF STATUS,RP1
                      00065                 
0018   3019           00066                 movlw D'25' ;9600 baud CRISTAL DE 4MHZ
Message[302]: Register in operand not in bank 0.  Ensure that bank bits are correct.
0019   0099           00067                 movwf SPBRG
                      00068                 
Message[302]: Register in operand not in bank 0.  Ensure that bank bits are correct.
001A   1398           00069                 bcf TXSTA,CSRC ;7(ignorado por estar en modo asincrono)
Message[302]: Register in operand not in bank 0.  Ensure that bank bits are correct.
001B   1318           00070                 bcf TXSTA,TX9 ;6 transmicion de 8 bits
Message[302]: Register in operand not in bank 0.  Ensure that bank bits are correct.
001C   1698           00071                 bsf TXSTA,TXEN;5 transmicion habilitada
Message[302]: Register in operand not in bank 0.  Ensure that bank bits are correct.
001D   1218           00072                 bcf TXSTA,SYNC;4 modo asincrono
                      00073                                           ;bit 3 no implementado
Message[302]: Register in operand not in bank 0.  Ensure that bank bits are correct.
001E   1518           00074                 bsf TXSTA,BRGH;2 high speed baudrate
                      00075                 
Message[302]: Register in operand not in bank 0.  Ensure that bank bits are correct.
MPASM 5.73                          PROG.ASM   5-15-2017  19:22:12         PAGE  3


LOC  OBJECT CODE     LINE SOURCE TEXT
  VALUE

001F   168C           00076                 bsf PIE1,RCIE
0020   1283           00077                 BCF STATUS,RP0; BANCO 0
                      00078                 
0021   1798           00079                 bsf RCSTA,SPEN;7 serial port habilitado
0022   1318           00080                 bcf RCSTA,RX9;6 se reciben 8 bits
                      00081                                           ;bit 5 ignorado en modo asincrono
0023   1618           00082                 bsf RCSTA,CREN ;4 activa la recepcion continua
0024   1598           00083                 bsf RCSTA,ADDEN ;3 activo la interrupcion por recepcion
0025   1118           00084                 bcf RCSTA,FERR; 2 no framming error
0026   1098           00085                 bcf RCSTA,OERR;1 no overrun error
                      00086 ;;;;;;;;;;;;;;;;;;;;;;;;;;;;;;;;;;;;;;;;;;;;;;;;;;;;;;;;;;;;;;          
Warning[207]: Found label after column 1. (MAIN)
0027                  00087         MAIN ;INICIALIZO LAS VARIABLES
0027   01A1           00088                 CLRF Time0
0028   01A2           00089                 CLRF Time1
0029   01A3           00090                 CLRF Time2
002A   01A4           00091                 CLRF Time3
002B   01A5           00092                 CLRF Time4
002C   01A6           00093                 CLRF TimeAux
002D   01B2           00094                 CLRF cont_flag
                      00095                 
002E   3001           00096                 MOVLW 0X01
002F   0085           00097                 MOVWF MULT_PORT
0030   0188           00098                 CLRF PORTD
                      00099                 
0031   0103           00100                 CLRW
0032   2???           00101                 CALL TABLA
0033   00A7           00102                 MOVWF Disp0
0034   00A8           00103                 MOVWF Disp1
0035   00A9           00104                 MOVWF Disp2
0036   00AA           00105                 MOVWF Disp3
                      00106                 
                      00107                                                 ;El timer 1 debe interrumpir cada 5ms, PRECARGA= EC77
0037   1010           00108                 BCF T1CON,TMR1ON                                
0038   30EC           00109                 MOVLW 0XEC
0039   008F           00110                 MOVWF TMR1H
003A   3077           00111                 MOVLW 0X77
003B   008E           00112                 MOVWF TMR1L
                      00113                 
                      00114                 
003C   1806           00115                 btfsc PORTB,0
003D   2???           00116                 goto $-1
                      00117                 
003E   1410           00118                 BSF T1CON,TMR1ON                
003F   178B           00119                 BSF INTCON,GIE
                      00120                 
0040   0000           00121                 NOP
0041   2???           00122                 GOTO $-1
                      00123                 
                      00124                         
                      00125                         
0042                  00126 INTERRUPT ;SALVO LOS REGISTROS
0042   00B0           00127                 MOVWF W_TMP
MPASM 5.73                          PROG.ASM   5-15-2017  19:22:12         PAGE  4


LOC  OBJECT CODE     LINE SOURCE TEXT
  VALUE

0043   0E03           00128                 SWAPF STATUS,W
0044   1283           00129                 BCF STATUS,RP0
0045   1303           00130                 BCF STATUS,RP1
0046   00B1           00131                 MOVWF S_TMP
                      00132                 
                      00133                 ;VERIFICO LOS FLAGS
0047   188B           00134                 BTFSC INTCON,INTF
0048   2???           00135                 GOTO INT_EXT
0049   180C           00136                 BTFSC PIR1,TMR1IF
004A   2???           00137                 GOTO INT_TMR
004B   1A8C           00138                 BTFSC PIR1,RCIF
004C   2???           00139                 GOTO INT_RC232
                      00140                 ;SI FUE UN FALSO DISPARO RECUPERO LOS REG Y RETORNO 
004D   0831           00141                 MOVF S_TMP,W
004E   0083           00142                 MOVWF STATUS
004F   0EB0           00143                 SWAPF W_TMP,F
0050   0E30           00144                 SWAPF W_TMP,W
0051   0009           00145                 RETFIE
                      00146                 
                      00147                 
                      00148                 
0052                  00149 INT_EXT
0052   120C           00150                 BCF PIR1,TXIF
0053   0825           00151                 MOVF Time4,W ; ENVIO LOS VALORES DE TIEMPO
                      00152                 ;IORLW 0X30 ; CODIFICO EN ASCII
0054   0099           00153                 MOVWF TXREG
0055   1E0C           00154                 BTFSS PIR1,TXIF ; SI EL BUFFER DE ENVIO ESTA VACIO ENVIO EL PROXIMO
0056   2???           00155                 GOTO $-1
                      00156                 
0057   120C           00157                 BCF PIR1,TXIF
0058   0824           00158                 MOVF Time3,W ; ENVIO LOS VALORES DE TIEMPO
                      00159                 ;IORLW 0X30 ; CODIFICO EN ASCII
0059   0099           00160                 MOVWF TXREG
005A   1E0C           00161                 BTFSS PIR1,TXIF ; SI EL BUFFER DE ENVIO ESTA VACIO ENVIO EL PROXIMO
005B   2???           00162                 GOTO $-1
                      00163                 
005C   120C           00164                 BCF PIR1,TXIF
005D   0823           00165                 MOVF Time2,W ; ENVIO LOS VALORES DE TIEMPO
                      00166                 ;IORLW 0X30 ; CODIFICO EN ASCII
005E   0099           00167                 MOVWF TXREG
005F   1E0C           00168                 BTFSS PIR1,TXIF ; SI EL BUFFER DE ENVIO ESTA VACIO ENVIO EL PROXIMO
0060   2???           00169                 GOTO $-1
                      00170                 
0061   120C           00171                 BCF PIR1,TXIF
0062   0822           00172                 MOVF Time1,W ; ENVIO LOS VALORES DE TIEMPO
                      00173                 ;IORLW 0X30 ; CODIFICO EN ASCII
0063   0099           00174                 MOVWF TXREG
0064   1E0C           00175                 BTFSS PIR1,TXIF ; SI EL BUFFER DE ENVIO ESTA VACIO ENVIO EL PROXIMO
0065   2???           00176                 GOTO $-1
                      00177                 
0066   0821           00178                 MOVF Time0,W ; ENVIO LOS VALORES DE TIEMPO
                      00179                 ;IORLW 0X30 ; CODIFICO EN ASCII
0067   0099           00180                 MOVWF TXREG
MPASM 5.73                          PROG.ASM   5-15-2017  19:22:12         PAGE  5


LOC  OBJECT CODE     LINE SOURCE TEXT
  VALUE

                      00181                 
                      00182                 
0068   108B           00183                 BCF INTCON,INTF;BAJO LA BANDERA Y RECUPERACOIN DE REGISTROS
0069   0E31           00184                 SWAPF S_TMP,W
006A   0083           00185                 MOVWF STATUS
006B   0EB0           00186                 SWAPF W_TMP,F
006C   0E30           00187                 SWAPF W_TMP,W
006D   0009           00188                 RETFIE
                      00189                 
                      00190 
006E                  00191 INT_TMR 
006E   100C           00192                 BCF PIR1,TMR1IF;BAJO LA BANDERA  
                      00193                 
006F   1010           00194                 BCF T1CON,TMR1ON        ; precarga de timer                     
0070   30EC           00195                 MOVLW 0XEC
Message[305]: Using default destination of 1 (file).
0071   078F           00196                 ADDWF TMR1H ; uso add para mas precicion
0072   3077           00197                 MOVLW 0X77
Message[305]: Using default destination of 1 (file).
0073   078E           00198                 ADDWF TMR1L
0074   1410           00199                 BSF T1CON,TMR1ON
                      00200                 
0075   0AA6           00201                 INCF  TimeAux,F ;incremento la cuenta de tiempo
0076   0826           00202                 MOVF  TimeAux,W
0077   3A02           00203                 XORLW 0x02
0078   1D03           00204                 BTFSS STATUS,Z
0079   2???           00205                 GOTO SIG                ; SI NO ES NECESARIO ACTUALIZAR LOS OTROS CONTADORES PASA DIRECG
                            TO AL SIGUIENTE PASO
007A   01A6           00206                 CLRF TimeAux            
                      00207                 
007B   0AA1           00208                 INCF  Time0,F ; si el aux es 2 incremento las centesimas de segundo
007C   0821           00209                 MOVF  Time0,W
007D   3A0A           00210                 XORLW 0x0A
007E   1D03           00211                 BTFSS STATUS,Z
007F   2???           00212                 GOTO SIG
0080   01A1           00213                 CLRF Time0
                      00214                 
0081   0AA2           00215                 INCF  Time1,F ; si es necesario incremento las decimas de segundo
0082   0822           00216                 MOVF  Time1,W
0083   3A0A           00217                 XORLW 0x0A
0084   1D03           00218                 BTFSS STATUS,Z
0085   2???           00219                 GOTO SIG
0086   01A2           00220                 CLRF Time1
                      00221                 
0087   0AA3           00222                 INCF  Time2,F; si es necesario incremento los segundos
0088   0823           00223                 MOVF  Time2,W
0089   3A0A           00224                 XORLW 0x0A
008A   1D03           00225                 BTFSS STATUS,Z
008B   2???           00226                 GOTO SIG
008C   01A3           00227                 CLRF Time2
                      00228                 
008D   0AA4           00229                 INCF  Time3,F; si es necesario incremento las decenas de segundo
008E   0824           00230                 MOVF  Time3,W
MPASM 5.73                          PROG.ASM   5-15-2017  19:22:12         PAGE  6


LOC  OBJECT CODE     LINE SOURCE TEXT
  VALUE

008F   3A0A           00231                 XORLW 0x0A
0090   1D03           00232                 BTFSS STATUS,Z
0091   2???           00233                 GOTO SIG
0092   01A4           00234                 CLRF Time3
                      00235                 
                      00236                 ; carga de datos de displays
Warning[207]: Found label after column 1. (SIG)
0093                  00237         SIG     
0093   08B2           00238                 MOVF cont_flag,f ; SI LOS VALORES DE LOS DISPLAYS ESTAN BAJO RETENCION PARA MOSTRAR EL I
                            NTERVALO NO SE DEBEN ACTUALIZAR
0094   1903           00239                 BTFSC STATUS,Z ; CUNADO EL FLAG ESTA EN CERO NO HAY RETENCION. TAMBIEN HACE LA CUENTA DE
                             LA RETENCION
0095   2???           00240                 GOTO  ACTUALIZAR
Message[305]: Using default destination of 1 (file).
0096   0AB2           00241                 INCF  cont_flag ; incremente el contador de tiempo de retencion
0097   2???           00242                 goto  IMPR
Warning[207]: Found label after column 1. (ACTUALIZAR)
0098                  00243         ACTUALIZAR      
0098   08A5           00244                 MOVF Time4,F ; si las centenas son cero no se muestran en los displays
0099   1D03           00245                 BTFSS STATUS,Z
009A   2???           00246                 GOTO  MUESTRA_CENTENA
                      00247                 
Warning[207]: Found label after column 1. (NO_MUESTRA_CENTENA)
009B                  00248         NO_MUESTRA_CENTENA ; carga los valores de los displays para luego imprimir
009B   0821           00249                 MOVF Time0,W
009C   2???           00250                 CALL TABLA
009D   00A7           00251                 MOVWF Disp0
                      00252                 
009E   0822           00253                 MOVF Time1,W
009F   2???           00254                 CALL TABLA
00A0   00A8           00255                 MOVWF Disp1
                      00256                 
00A1   0823           00257                 MOVF Time2,W
00A2   2???           00258                 CALL TABLA
00A3   00A9           00259                 MOVWF Disp2
00A4   17A9           00260                 BSF Disp2 , 7 ; agrego el punto decimal luego de los segundos
                      00261                 
00A5   0824           00262                 MOVF Time3,W
00A6   2???           00263                 CALL TABLA
00A7   00AA           00264                 MOVWF Disp3
00A8   2???           00265                 GOTO IMPR
                      00266                 
Warning[207]: Found label after column 1. (MUESTRA_CENTENA)
00A9                  00267         MUESTRA_CENTENA
00A9   0822           00268                 MOVF Time1,W
00AA   2???           00269                 CALL TABLA
00AB   00A7           00270                 MOVWF Disp0
                      00271                 
00AC   0823           00272                 MOVF Time2,W
00AD   2???           00273                 CALL TABLA
00AE   00A8           00274                 MOVWF Disp1
00AF   17A8           00275                 BSF Disp1 , 7 ; agrego el punto decimal luego de los segundos
                      00276                 
MPASM 5.73                          PROG.ASM   5-15-2017  19:22:12         PAGE  7


LOC  OBJECT CODE     LINE SOURCE TEXT
  VALUE

00B0   0824           00277                 MOVF Time3,W
00B1   2???           00278                 CALL TABLA
00B2   00A9           00279                 MOVWF Disp2
                      00280                 
00B3   0825           00281                 MOVF Time4,W
00B4   2???           00282                 CALL TABLA
00B5   00AA           00283                 MOVWF Disp3
00B6   2???           00284                 GOTO IMPR
                      00285                 ;IMPRESION CON MULTIPLEXADO EN LOS DISPLAYS
Warning[207]: Found label after column 1. (IMPR)
00B7                  00286         IMPR    
00B7   0188           00287                 CLRF PORTD ; 
00B8   1003           00288                 BCF STATUS,C ; ASEGURO EL CARRY EN 0 PARA Q NO INTERFIERA EN LA ROTACION
00B9   0D85           00289                 RLF MULT_PORT,F ;ROTACION DE BITS PARA MULTIPLEXAR
Warning[207]: Found label after column 1. (DIS3)
00BA                  00290         DIS3
00BA   1D85           00291                 BTFSS MULT_PORT,3
00BB   2???           00292                 GOTO DIS2
00BC   082A           00293                 MOVF Disp3,W
00BD   0088           00294                 MOVWF PORTD
00BE   2???           00295                 GOTO RET ; PASO AL RETORNO DE INTERRUPCION
Warning[207]: Found label after column 1. (DIS2)
00BF                  00296         DIS2    
00BF   1D05           00297                 BTFSS MULT_PORT,2
00C0   2???           00298                 GOTO DIS1
00C1   0829           00299                 MOVF Disp2,W
00C2   0088           00300                 MOVWF PORTD
00C3   2???           00301                 GOTO RET ; PASO AL RETORNO DE INTERRUPCION
Warning[207]: Found label after column 1. (DIS1)
00C4                  00302         DIS1
00C4   1C85           00303                 BTFSS MULT_PORT,1
00C5   2???           00304                 GOTO DIS0
00C6   0828           00305                 MOVF Disp1,W
00C7   0088           00306                 MOVWF PORTD
00C8   2???           00307                 GOTO RET ; PASO AL RETORNO DE INTERRUPCION
Warning[207]: Found label after column 1. (DIS0)
00C9                  00308         DIS0 ; SI LLEGO HASTA AQUI ES PORQUE TODOS ESTAN EN 0, OSEA , MULT_PORT = 0001 0000
00C9   1405           00309                 BSF PORTA,0
00CA   0827           00310                 MOVF Disp0,W
00CB   0088           00311                 MOVWF PORTD
                      00312                 
                      00313                 
Warning[207]: Found label after column 1. (RET)
00CC                  00314         RET
                      00315                 ;RECUPERACOIN DE REGISTROS
00CC   0E31           00316                 SWAPF S_TMP,W
00CD   0083           00317                 MOVWF STATUS
00CE   0EB0           00318                 SWAPF W_TMP,F
00CF   0E30           00319                 SWAPF W_TMP,W
00D0   0009           00320                 RETFIE
                      00321                 
                      00322                 
00D1                  00323 TABLA
MPASM 5.73                          PROG.ASM   5-15-2017  19:22:12         PAGE  8


LOC  OBJECT CODE     LINE SOURCE TEXT
  VALUE

00D1   0782           00324                 ADDWF PCL,F
00D2   343F           00325                 RETLW 0x3F ;0
00D3   3406           00326                 RETLW 0x06 ;1
00D4   345B           00327                 RETLW 0x5B ;2
00D5   344F           00328                 RETLW 0x4F ;3
00D6   3466           00329                 RETLW 0x66 ;4
00D7   346D           00330                 RETLW 0x6D ;5
00D8   347D           00331                 RETLW 0x7D ;6
00D9   3407           00332                 RETLW 0x07 ;7
00DA   347F           00333                 RETLW 0x7F ;8
00DB   346F           00334                 RETLW 0x6F ;9
                      00335         
                      00336         
00DC                  00337 INT_RC232
00DC   128C           00338                 BCF PIR1,RCIF
00DD   081A           00339                 MOVF RCREG,W ; RECIBO LOS VALORES DE TIEMPO
00DE   390F           00340                 ANDLW 0X0F ; CONVERSION ASCII -> DECIMAL
00DF   2???           00341                 CALL TABLA
00E0   00AA           00342                 MOVWF Disp3     
                      00343                 
00E1   1E8C           00344                 BTFSS PIR1,RCIF ; Cuando llegue el proximo digito lo recibo
00E2   2???           00345                 GOTO $-1
                      00346                 
00E3   128C           00347                 BCF PIR1,RCIF
00E4   081A           00348                 MOVF RCREG,W ; RECIBO LOS VALORES DE TIEMPO
00E5   390F           00349                 ANDLW 0X0F ; CONVERSION ASCII -> DECIMAL
00E6   2???           00350                 CALL TABLA
00E7   00A9           00351                 MOVWF Disp2
00E8   17A9           00352                 BSF Disp2,7 ; agrego el punto decimal
                      00353                 
00E9   1E8C           00354                 BTFSS PIR1,RCIF ; Cuando llegue el proximo digito lo recibo
00EA   2???           00355                 GOTO $-1
                      00356                 
00EB   128C           00357                 BCF PIR1,RCIF
00EC   081A           00358                 MOVF RCREG,W ; RECIBO LOS VALORES DE TIEMPO
00ED   390F           00359                 ANDLW 0X0F ; CONVERSION ASCII -> DECIMAL
00EE   2???           00360                 CALL TABLA
00EF   00A8           00361                 MOVWF Disp1     
                      00362                 
00F0   1E8C           00363                 BTFSS PIR1,RCIF ; Cuando llegue el proximo digito lo recibo
00F1   2???           00364                 GOTO $-1
                      00365                 
00F2   128C           00366                 BCF PIR1,RCIF
00F3   081A           00367                 MOVF RCREG,W ; RECIBO LOS VALORES DE TIEMPO
00F4   390F           00368                 ANDLW 0X0F ; CONVERSION ASCII -> DECIMAL
00F5   2???           00369                 CALL TABLA
00F6   00A7           00370                 MOVWF Disp0     
                      00371                 
00F7   3001           00372                 MOVLW 0X01
00F8   00B2           00373                 MOVWF cont_flag ; seteo la bandera de tiempo
                      00374                 
                      00375                 
00F9   108B           00376                 BCF INTCON,INTF;BAJO LA BANDERA Y RECUPERACOIN DE REGISTROS
MPASM 5.73                          PROG.ASM   5-15-2017  19:22:12         PAGE  9


LOC  OBJECT CODE     LINE SOURCE TEXT
  VALUE

00FA   0E31           00377                 SWAPF S_TMP,W
00FB   0083           00378                 MOVWF STATUS
00FC   0EB0           00379                 SWAPF W_TMP,F
00FD   0E30           00380                 SWAPF W_TMP,W
00FE   0009           00381                 RETFIE
                      00382         
                      00383         
                      00384         
Warning[205]: Found directive in column 1. (END)
3FF1                  00385 END
MPASM 5.73                          PROG.ASM   5-15-2017  19:22:12         PAGE 10


SYMBOL TABLE
  LABEL                             VALUE 

ACKDT                             00000005
ACKEN                             00000004
ACKSTAT                           00000006
ACTUALIZAR                        00000098
ADCON0                            0000001F
ADCON1                            0000009F
ADCS0                             00000006
ADCS1                             00000007
ADCS2                             00000006
ADDEN                             00000003
ADFM                              00000007
ADIE                              00000006
ADIF                              00000006
ADON                              00000000
ADRESH                            0000001E
ADRESL                            0000009E
BCLIE                             00000003
BCLIF                             00000003
BF                                00000000
BRGH                              00000002
C                                 00000000
C1INV                             00000004
C1OUT                             00000006
C2INV                             00000005
C2OUT                             00000007
CCP1CON                           00000017
CCP1IE                            00000002
CCP1IF                            00000002
CCP1M0                            00000000
CCP1M1                            00000001
CCP1M2                            00000002
CCP1M3                            00000003
CCP1X                             00000005
CCP1Y                             00000004
CCP2CON                           0000001D
CCP2IE                            00000000
CCP2IF                            00000000
CCP2M0                            00000000
CCP2M1                            00000001
CCP2M2                            00000002
CCP2M3                            00000003
CCP2X                             00000005
CCP2Y                             00000004
CCPR1                             00000015
CCPR1H                            00000016
CCPR1L                            00000015
CCPR2                             0000001B
CCPR2H                            0000001C
CCPR2L                            0000001B
CHS0                              00000003
CHS1                              00000004
CHS2                              00000005
CIS                               00000003
MPASM 5.73                          PROG.ASM   5-15-2017  19:22:12         PAGE 11


SYMBOL TABLE
  LABEL                             VALUE 

CKE                               00000006
CKP                               00000004
CM0                               00000000
CM1                               00000001
CM2                               00000002
CMCON                             0000009C
CMIE                              00000006
CMIF                              00000006
CREN                              00000004
CSRC                              00000007
CVR0                              00000000
CVR1                              00000001
CVR2                              00000002
CVR3                              00000003
CVRCON                            0000009D
CVREN                             00000007
CVROE                             00000006
CVRR                              00000005
D                                 00000005
D0                                00000000
D1                                00000001
D2                                00000002
D3                                00000003
DATA_ADDRESS                      00000005
DC                                00000001
DIS0                              000000C9
DIS1                              000000C4
DIS2                              000000BF
DIS3                              000000BA
D_A                               00000005
D_NOT_A                           00000005
Disp0                             00000027
Disp1                             00000028
Disp2                             00000029
Disp3                             0000002A
EEADR                             0000010D
EEADRH                            0000010F
EECON1                            0000018C
EECON2                            0000018D
EEDATA                            0000010C
EEDATH                            0000010E
EEIE                              00000004
EEIF                              00000004
EEPGD                             00000007
F                                 00000001
FERR                              00000002
FSR                               00000004
GCEN                              00000007
GIE                               00000007
GO                                00000002
GO_DONE                           00000002
GO_NOT_DONE                       00000002
I2C_DATA                          00000005
MPASM 5.73                          PROG.ASM   5-15-2017  19:22:12         PAGE 12


SYMBOL TABLE
  LABEL                             VALUE 

I2C_READ                          00000002
I2C_START                         00000003
I2C_STOP                          00000004
IBF                               00000007
IBOV                              00000005
IMPR                              000000B7
INDF                              00000000
INICIO                            00000006
INTCON                            0000000B
INTE                              00000004
INTEDG                            00000006
INTERRUPT                         00000042
INTF                              00000001
INT_EXT                           00000052
INT_RC232                         000000DC
INT_TMR                           0000006E
IRP                               00000007
MAIN                              00000027
MUESTRA_CENTENA                   000000A9
MULT_PORT                         00000005
NOT_A                             00000005
NOT_ADDRESS                       00000005
NOT_BO                            00000000
NOT_BOR                           00000000
NOT_DONE                          00000002
NOT_PD                            00000003
NOT_POR                           00000001
NOT_RBPU                          00000007
NOT_RC8                           00000006
NOT_T1SYNC                        00000002
NOT_TO                            00000004
NOT_TX8                           00000006
NOT_W                             00000002
NOT_WRITE                         00000002
NO_MUESTRA_CENTENA                0000009B
OBF                               00000006
OERR                              00000001
OPTION_REG                        00000081
P                                 00000004
PCFG0                             00000000
PCFG1                             00000001
PCFG2                             00000002
PCFG3                             00000003
PCL                               00000002
PCLATH                            0000000A
PCON                              0000008E
PEIE                              00000006
PEN                               00000002
PIE1                              0000008C
PIE2                              0000008D
PIR1                              0000000C
PIR2                              0000000D
PORTA                             00000005
MPASM 5.73                          PROG.ASM   5-15-2017  19:22:12         PAGE 13


SYMBOL TABLE
  LABEL                             VALUE 

PORTB                             00000006
PORTC                             00000007
PORTD                             00000008
PORTE                             00000009
PR2                               00000092
PS0                               00000000
PS1                               00000001
PS2                               00000002
PSA                               00000003
PSPIE                             00000007
PSPIF                             00000007
PSPMODE                           00000004
R                                 00000002
RA0                               00000000
RA1                               00000001
RA2                               00000002
RA3                               00000003
RA4                               00000004
RA5                               00000005
RB0                               00000000
RB1                               00000001
RB2                               00000002
RB3                               00000003
RB4                               00000004
RB5                               00000005
RB6                               00000006
RB7                               00000007
RBIE                              00000003
RBIF                              00000000
RC0                               00000000
RC1                               00000001
RC2                               00000002
RC3                               00000003
RC4                               00000004
RC5                               00000005
RC6                               00000006
RC7                               00000007
RC8_9                             00000006
RC9                               00000006
RCD8                              00000000
RCEN                              00000003
RCIE                              00000005
RCIF                              00000005
RCREG                             0000001A
RCSTA                             00000018
RD                                00000000
RD0                               00000000
RD1                               00000001
RD2                               00000002
RD3                               00000003
RD4                               00000004
RD5                               00000005
RD6                               00000006
MPASM 5.73                          PROG.ASM   5-15-2017  19:22:12         PAGE 14


SYMBOL TABLE
  LABEL                             VALUE 

RD7                               00000007
RE0                               00000000
RE1                               00000001
RE2                               00000002
READ_WRITE                        00000002
RET                               000000CC
RP0                               00000005
RP1                               00000006
RSEN                              00000001
RX9                               00000006
RX9D                              00000000
R_NOT_W                           00000002
R_W                               00000002
S                                 00000003
SEN                               00000000
SIG                               00000093
SMP                               00000007
SPBRG                             00000099
SPEN                              00000007
SREN                              00000005
SSPADD                            00000093
SSPBUF                            00000013
SSPCON                            00000014
SSPCON2                           00000091
SSPEN                             00000005
SSPIE                             00000003
SSPIF                             00000003
SSPM0                             00000000
SSPM1                             00000001
SSPM2                             00000002
SSPM3                             00000003
SSPOV                             00000006
SSPSTAT                           00000094
STATUS                            00000003
SYNC                              00000004
S_TMP                             00000031
T0CS                              00000005
T0IE                              00000005
T0IF                              00000002
T0SE                              00000004
T1CKPS0                           00000004
T1CKPS1                           00000005
T1CON                             00000010
T1INSYNC                          00000002
T1OSCEN                           00000003
T1SYNC                            00000002
T2CKPS0                           00000000
T2CKPS1                           00000001
T2CON                             00000012
TABLA                             000000D1
TMR0                              00000001
TMR0IE                            00000005
TMR0IF                            00000002
MPASM 5.73                          PROG.ASM   5-15-2017  19:22:12         PAGE 15


SYMBOL TABLE
  LABEL                             VALUE 

TMR1                              0000000E
TMR1CS                            00000001
TMR1H                             0000000F
TMR1IE                            00000000
TMR1IF                            00000000
TMR1L                             0000000E
TMR1ON                            00000000
TMR2                              00000011
TMR2IE                            00000001
TMR2IF                            00000001
TMR2ON                            00000002
TOUTPS0                           00000003
TOUTPS1                           00000004
TOUTPS2                           00000005
TOUTPS3                           00000006
TRISA                             00000085
TRISA0                            00000000
TRISA1                            00000001
TRISA2                            00000002
TRISA3                            00000003
TRISA4                            00000004
TRISA5                            00000005
TRISB                             00000086
TRISB0                            00000000
TRISB1                            00000001
TRISB2                            00000002
TRISB3                            00000003
TRISB4                            00000004
TRISB5                            00000005
TRISB6                            00000006
TRISB7                            00000007
TRISC                             00000087
TRISC0                            00000000
TRISC1                            00000001
TRISC2                            00000002
TRISC3                            00000003
TRISC4                            00000004
TRISC5                            00000005
TRISC6                            00000006
TRISC7                            00000007
TRISD                             00000088
TRISD0                            00000000
TRISD1                            00000001
TRISD2                            00000002
TRISD3                            00000003
TRISD4                            00000004
TRISD5                            00000005
TRISD6                            00000006
TRISD7                            00000007
TRISE                             00000089
TRISE0                            00000000
TRISE1                            00000001
TRISE2                            00000002
MPASM 5.73                          PROG.ASM   5-15-2017  19:22:12         PAGE 16


SYMBOL TABLE
  LABEL                             VALUE 

TRMT                              00000001
TX8_9                             00000006
TX9                               00000006
TX9D                              00000000
TXD8                              00000000
TXEN                              00000005
TXIE                              00000004
TXIF                              00000004
TXREG                             00000019
TXSTA                             00000098
Time0                             00000021
Time1                             00000022
Time2                             00000023
Time3                             00000024
Time4                             00000025
TimeAux                           00000026
UA                                00000001
W                                 00000000
WCOL                              00000007
WR                                00000001
WREN                              00000002
WRERR                             00000003
W_TMP                             00000030
Z                                 00000002
_.org_2_003D                      0000003D
_.org_2_0041                      00000041
_.org_2_0056                      00000056
_.org_2_005B                      0000005B
_.org_2_0060                      00000060
_.org_2_0065                      00000065
_.org_2_00E2                      000000E2
_.org_2_00EA                      000000EA
_.org_2_00F1                      000000F1
_BODEN_OFF                        00003FBF
_BODEN_ON                         00003FFF
_BOREN_OFF                        00003FBF
_BOREN_ON                         00003FFF
_CONFIG                           00002007
_CPD_OFF                          00003FFF
_CPD_ON                           00003EFF
_CP_ALL                           00001FFF
_CP_OFF                           00003FFF
_CP_ON                            00001FFF
_DEBUG_OFF                        00003FFF
_DEBUG_ON                         000037FF
_DEVID1                           00002006
_FOSC_EXTRC                       00003FFF
_FOSC_HS                          00003FFE
_FOSC_LP                          00003FFC
_FOSC_XT                          00003FFD
_HS_OSC                           00003FFE
_IDLOC0                           00002000
_IDLOC1                           00002001
MPASM 5.73                          PROG.ASM   5-15-2017  19:22:12         PAGE 17


SYMBOL TABLE
  LABEL                             VALUE 

_IDLOC2                           00002002
_IDLOC3                           00002003
_LP_OSC                           00003FFC
_LVP_OFF                          00003F7F
_LVP_ON                           00003FFF
_PWRTE_OFF                        00003FFF
_PWRTE_ON                         00003FF7
_RC_OSC                           00003FFF
_WDTE_OFF                         00003FFB
_WDTE_ON                          00003FFF
_WDT_OFF                          00003FFB
_WDT_ON                           00003FFF
_WRT_1FOURTH                      00003BFF
_WRT_256                          00003DFF
_WRT_HALF                         000039FF
_WRT_OFF                          00003FFF
_XT_OSC                           00003FFD
__16F877A                         00000001
cont_flag                         00000032

Errors   :     0
Warnings :    19 reported,     0 suppressed
Messages :    16 reported,     0 suppressed

